target datalayout = "e-m:e-p270:32:32-p271:32:32-p272:64:64-i64:64-i128:128-f80:128-n8:16:32:64-S128"
target triple = "x86_64-pc-linux-gnu"

%"class.std::basic_ostream" = type { ptr, %"class.std::basic_ios" }
%"class.std::basic_ios" = type { %"class.std::ios_base", ptr, i8, i8, ptr, ptr, ptr, ptr }
%"class.std::ios_base" = type { ptr, i64, i64, i32, i32, i32, ptr, %"struct.std::ios_base::_Words", [8 x %"struct.std::ios_base::_Words"], i32, ptr, %"class.std::locale" }
%"struct.std::ios_base::_Words" = type { ptr, i64 }
%"class.std::locale" = type { ptr }
%struct.sigaction = type { %union.anon.125, %struct.__sigset_t, i32, ptr }
%union.anon.125 = type { ptr }
%struct.__sigset_t = type { [16 x i64] }
%struct.timeval = type { i64, i64 }

@_ZZN3nix7initNixEvE3buf = internal global [1024 x i8] zeroinitializer, align 16
@_ZSt4cerr = external global %"class.std::basic_ostream", align 8
@.str.15 = private unnamed_addr constant [18 x i8] c"resetting SIGCHLD\00", align 1
@_ZTIN3nix8SysErrorE = linkonce_odr constant { ptr, ptr, ptr } { ptr getelementptr inbounds (ptr, ptr @_ZTVN10__cxxabiv120__si_class_type_infoE, i64 2), ptr @_ZTSN3nix8SysErrorE, ptr @_ZTIN3nix11SystemErrorE }, comdat, align 8
@.str.16 = private unnamed_addr constant [17 x i8] c"handling SIGUSR1\00", align 1

; Function Attrs: mustprogress uwtable
define void @_ZN3nix7initNixEv() #5 personality ptr @__gxx_personality_v0 {
  %1 = alloca %struct.sigaction, align 8
  %2 = alloca ptr, align 8
  %3 = alloca i32, align 4
  %4 = alloca %struct.timeval, align 8
  %5 = load ptr, ptr @_ZSt4cerr, align 8
  %6 = getelementptr i8, ptr %5, i64 -24
  %7 = load i64, ptr %6, align 8
  %8 = getelementptr inbounds i8, ptr @_ZSt4cerr, i64 %7
  %9 = call noundef ptr @_ZNKSt9basic_iosIcSt11char_traitsIcEE5rdbufEv(ptr noundef nonnull align 8 dereferenceable(264) %8)
  %10 = call noundef ptr @_ZNSt15basic_streambufIcSt11char_traitsIcEE9pubsetbufEPcl(ptr noundef nonnull align 8 dereferenceable(64) %9, ptr noundef @_ZZN3nix7initNixEvE3buf, i64 noundef 1024)
  call void @_ZN3nix12initLibStoreEv()
  call void @_ZN3nix24startSignalHandlerThreadEv()
  %11 = getelementptr inbounds %struct.sigaction, ptr %1, i32 0, i32 1
  %12 = call i32 @sigemptyset(ptr noundef %11) #1
  %13 = getelementptr inbounds %struct.sigaction, ptr %1, i32 0, i32 2
  store i32 0, ptr %13, align 8
  %14 = getelementptr inbounds %struct.sigaction, ptr %1, i32 0, i32 0
  store ptr null, ptr %14, align 8
  %15 = call i32 @sigaction(i32 noundef 17, ptr noundef %1, ptr noundef null) #1
  %16 = icmp ne i32 %15, 0
  br i1 %16, label %17, label %24

17:                                               ; preds = %0
  %18 = call ptr @__cxa_allocate_exception(i64 384) #1
  invoke void @_ZN3nix8SysErrorC2IJA18_cEEEDpRKT_(ptr noundef nonnull align 8 dereferenceable(380) %18, ptr noundef nonnull align 1 dereferenceable(18) @.str.15)
          to label %19 unwind label %20

19:                                               ; preds = %17
  call void @__cxa_throw(ptr %18, ptr @_ZTIN3nix8SysErrorE, ptr @_ZN3nix8SysErrorD2Ev) #19
  unreachable

20:                                               ; preds = %17
  %21 = landingpad { ptr, i32 }
          cleanup
  %22 = extractvalue { ptr, i32 } %21, 0
  store ptr %22, ptr %2, align 8
  %23 = extractvalue { ptr, i32 } %21, 1
  store i32 %23, ptr %3, align 4
  call void @__cxa_free_exception(ptr %18) #1
  br label %41

24:                                               ; preds = %0
  %25 = getelementptr inbounds %struct.sigaction, ptr %1, i32 0, i32 0
  store ptr @_ZN3nixL10sigHandlerEi, ptr %25, align 8
  %26 = call i32 @sigaction(i32 noundef 10, ptr noundef %1, ptr noundef null) #1
  %27 = icmp ne i32 %26, 0
  br i1 %27, label %28, label %35

28:                                               ; preds = %24
  %29 = call ptr @__cxa_allocate_exception(i64 384) #1
  invoke void @_ZN3nix8SysErrorC2IJA17_cEEEDpRKT_(ptr noundef nonnull align 8 dereferenceable(380) %29, ptr noundef nonnull align 1 dereferenceable(17) @.str.16)
          to label %30 unwind label %31

30:                                               ; preds = %28
  call void @__cxa_throw(ptr %29, ptr @_ZTIN3nix8SysErrorE, ptr @_ZN3nix8SysErrorD2Ev) #19
  unreachable

31:                                               ; preds = %28
  %32 = landingpad { ptr, i32 }
          cleanup
  %33 = extractvalue { ptr, i32 } %32, 0
  store ptr %33, ptr %2, align 8
  %34 = extractvalue { ptr, i32 } %32, 1
  store i32 %34, ptr %3, align 4
  call void @__cxa_free_exception(ptr %29) #1
  br label %41

35:                                               ; preds = %24
  call void @_ZN3nix19detectStackOverflowEv()
  %36 = call i32 @umask(i32 noundef 18) #1
  %37 = call i32 @gettimeofday(ptr noundef %4, ptr noundef null) #1
  %38 = getelementptr inbounds %struct.timeval, ptr %4, i32 0, i32 1
  %39 = load i64, ptr %38, align 8
  %40 = trunc i64 %39 to i32
  call void @srandom(i32 noundef %40) #1
  ret void

41:                                               ; preds = %31, %20
  %42 = load ptr, ptr %2, align 8
  %43 = load i32, ptr %3, align 4
  %44 = insertvalue { ptr, i32 } poison, ptr %42, 0
  %45 = insertvalue { ptr, i32 } %44, i32 %43, 1
  resume { ptr, i32 } %45
}