; Function Attrs: mustprogress uwtable
define void @_ZN3nix7initNixEv() local_unnamed_addr #5 personality ptr @__gxx_personality_v0 {
  %1 = alloca %struct.sigaction, align 8
  %2 = alloca %struct.timeval, align 8
  %3 = load ptr, ptr @_ZSt4cerr, align 8
  %4 = getelementptr i8, ptr %3, i64 -24
  %5 = load i64, ptr %4, align 8
  %6 = getelementptr inbounds i8, ptr @_ZSt4cerr, i64 %5
  %7 = tail call noundef ptr @_ZNKSt9basic_iosIcSt11char_traitsIcEE5rdbufEv(ptr noundef nonnull align 8 dereferenceable(264) %6)
  %8 = tail call noundef ptr @_ZNSt15basic_streambufIcSt11char_traitsIcEE9pubsetbufEPcl(ptr noundef nonnull align 8 dereferenceable(64) %7, ptr noundef nonnull @_ZZN3nix7initNixEvE3buf, i64 noundef 1024)
  tail call void @_ZN3nix12initLibStoreEv()
  tail call void @_ZN3nix24startSignalHandlerThreadEv()
  %9 = getelementptr inbounds i8, ptr %1, i64 8
  %10 = call i32 @sigemptyset(ptr noundef nonnull %9) #30
  %11 = getelementptr inbounds i8, ptr %1, i64 136
  store i32 0, ptr %11, align 8
  store ptr null, ptr %1, align 8
  %12 = call i32 @sigaction(i32 noundef 17, ptr noundef nonnull %1, ptr noundef null) #30
  %.not = icmp eq i32 %12, 0
  br i1 %.not, label %18, label %13

13:                                               ; preds = %0
  %14 = call ptr @__cxa_allocate_exception(i64 384) #30
  invoke void @_ZN3nix8SysErrorC2IJA18_cEEEDpRKT_(ptr noundef nonnull align 8 dereferenceable(380) %14, ptr noundef nonnull align 1 dereferenceable(18) @.str.15)
          to label %15 unwind label %16

15:                                               ; preds = %13
  call void @__cxa_throw(ptr nonnull %14, ptr nonnull @_ZTIN3nix8SysErrorE, ptr nonnull @_ZN3nix8SysErrorD2Ev) #31
  unreachable

16:                                               ; preds = %13
  %17 = landingpad { ptr, i32 }
          cleanup
  br label %31

18:                                               ; preds = %0
  store ptr @_ZN3nixL10sigHandlerEi, ptr %1, align 8
  %19 = call i32 @sigaction(i32 noundef 10, ptr noundef nonnull %1, ptr noundef null) #30
  %.not2 = icmp eq i32 %19, 0
  br i1 %.not2, label %25, label %20

20:                                               ; preds = %18
  %21 = call ptr @__cxa_allocate_exception(i64 384) #30
  invoke void @_ZN3nix8SysErrorC2IJA17_cEEEDpRKT_(ptr noundef nonnull align 8 dereferenceable(380) %21, ptr noundef nonnull align 1 dereferenceable(17) @.str.16)
          to label %22 unwind label %23

22:                                               ; preds = %20
  call void @__cxa_throw(ptr nonnull %21, ptr nonnull @_ZTIN3nix8SysErrorE, ptr nonnull @_ZN3nix8SysErrorD2Ev) #31
  unreachable

23:                                               ; preds = %20
  %24 = landingpad { ptr, i32 }
          cleanup
  br label %31

25:                                               ; preds = %18
  call void @_ZN3nix19detectStackOverflowEv()
  %26 = call i32 @umask(i32 noundef 18) #30
  %27 = call i32 @gettimeofday(ptr noundef nonnull %2, ptr noundef null) #30
  %28 = getelementptr inbounds i8, ptr %2, i64 8
  %29 = load i64, ptr %28, align 8
  %30 = trunc i64 %29 to i32
  call void @srandom(i32 noundef %30) #30
  ret void

31:                                               ; preds = %23, %16
  %.sink = phi ptr [ %21, %23 ], [ %14, %16 ]
  %.pn = phi { ptr, i32 } [ %24, %23 ], [ %17, %16 ]
  call void @__cxa_free_exception(ptr %.sink) #30
  resume { ptr, i32 } %.pn
}